; Function Attrs: mustprogress uwtable
define noundef zeroext i1 @_ZN5arrow17ArrayApproxEqualsERKNS_5ArrayES2_RKNS_12EqualOptionsE(ptr noundef nonnull align 8 dereferenceable(32) %0, ptr noundef nonnull align 8 dereferenceable(32) %1, ptr noundef nonnull align 8 dereferenceable(24) %2) local_unnamed_addr #1 {
  %4 = alloca %"class.arrow::Status", align 8
  call void @llvm.lifetime.start.p0(i64 8, ptr nonnull %4)
  %5 = getelementptr inbounds nuw i8, ptr %0, i64 8
  %6 = load ptr, ptr %5, align 8, !tbaa !32
  %7 = getelementptr inbounds nuw i8, ptr %6, i64 16
  %8 = load i64, ptr %7, align 8, !tbaa !57
  %9 = getelementptr inbounds nuw i8, ptr %1, i64 8
  %10 = load ptr, ptr %9, align 8, !tbaa !32
  %11 = getelementptr inbounds nuw i8, ptr %10, i64 16
  %12 = load i64, ptr %11, align 8, !tbaa !57
  %.not.i = icmp eq i64 %8, %12
  br i1 %.not.i, label %22, label %13

13:                                               ; preds = %3
  %14 = getelementptr inbounds nuw i8, ptr %2, i64 16
  %15 = load ptr, ptr %14, align 8, !tbaa !92
  call fastcc void @_ZN5arrow12_GLOBAL__N_19PrintDiffERKNS_5ArrayES3_llllPSo(ptr dead_on_unwind noalias nonnull writable align 8 %4, ptr noundef nonnull align 8 dereferenceable(32) %0, ptr noundef nonnull align 8 dereferenceable(32) %1, i64 noundef 0, i64 noundef %8, i64 noundef 0, i64 noundef %12, ptr noundef %15)
  %16 = load ptr, ptr %4, align 8, !tbaa !93
  %.not.i.i = icmp eq ptr %16, null
  br i1 %.not.i.i, label %_ZN5arrow12_GLOBAL__N_111ArrayEqualsERKNS_5ArrayES3_RKNS_12EqualOptionsEb.exit, label %17, !prof !96

17:                                               ; preds = %13
  %18 = getelementptr inbounds nuw i8, ptr %16, i64 1
  %19 = load i8, ptr %18, align 1, !tbaa !97, !range !81, !noundef !82
  %20 = trunc nuw i8 %19 to i1
  br i1 %20, label %_ZN5arrow12_GLOBAL__N_111ArrayEqualsERKNS_5ArrayES3_RKNS_12EqualOptionsEb.exit, label %21

21:                                               ; preds = %17
  call void @_ZN5arrow6Status11DeleteStateEv(ptr noundef nonnull align 8 dereferenceable(8) %4) #25
  br label %_ZN5arrow12_GLOBAL__N_111ArrayEqualsERKNS_5ArrayES3_RKNS_12EqualOptionsEb.exit

22:                                               ; preds = %3
  %23 = tail call fastcc noundef zeroext i1 @_ZN5arrow12_GLOBAL__N_116ArrayRangeEqualsERKNS_5ArrayES3_lllRKNS_12EqualOptionsEb(ptr noundef nonnull align 8 dereferenceable(32) %0, ptr noundef nonnull align 8 dereferenceable(32) %1, i64 noundef 0, i64 noundef %8, i64 noundef 0, ptr noundef nonnull align 8 dereferenceable(24) %2, i1 noundef zeroext true)
  br label %_ZN5arrow12_GLOBAL__N_111ArrayEqualsERKNS_5ArrayES3_RKNS_12EqualOptionsEb.exit

_ZN5arrow12_GLOBAL__N_111ArrayEqualsERKNS_5ArrayES3_RKNS_12EqualOptionsEb.exit: ; preds = %13, %17, %21, %22
  %.0.i = phi i1 [ %23, %22 ], [ false, %13 ], [ false, %17 ], [ false, %21 ]
  call void @llvm.lifetime.end.p0(i64 8, ptr nonnull %4)
  ret i1 %.0.i
}